target datalayout = "e-m:e-p270:32:32-p271:32:32-p272:64:64-i64:64-i128:128-f80:128-n8:16:32:64-S128"
target triple = "x86_64-pc-linux-gnu"

%"class.icu_77::MaybeStackArray" = type <{ ptr, i32, i8, [40 x i8], [3 x i8] }>
%"class.icu_77::CharString" = type { %"class.icu_77::MaybeStackArray", i32, [4 x i8] }
%"class.icu_77::MeasureUnitImpl" = type { i32, %"class.icu_77::MaybeStackVector", %"class.icu_77::CharString", i64 }
%"class.icu_77::MaybeStackVector" = type { %"class.icu_77::MemoryPool" }
%"class.icu_77::MemoryPool" = type { i32, %"class.icu_77::MaybeStackArray.0" }
%"class.icu_77::MaybeStackArray.0" = type { ptr, i32, i8, [8 x ptr] }
%"class.icu_77::UObject" = type { ptr }
%"class.icu_77::MeasureUnit" = type <{ %"class.icu_77::UObject", ptr, i16, i8, [5 x i8] }>

; Function Attrs: inlinehint mustprogress nounwind uwtable
define internal noundef signext i8 @_ZL9U_FAILURE10UErrorCode(i32 noundef %0) #2 {
  %2 = alloca i32, align 4
  store i32 %0, ptr %2, align 4, !tbaa !15
  %3 = load i32, ptr %2, align 4, !tbaa !15
  %4 = icmp sgt i32 %3, 0
  %5 = zext i1 %4 to i8
  ret i8 %5
}

; Function Attrs: mustprogress uwtable
define noundef i64 @_ZNK6icu_7711MeasureUnit22getConstantDenominatorER10UErrorCode(ptr noundef nonnull align 8 dereferenceable(19) %0, ptr noundef nonnull align 4 dereferenceable(4) %1) #1 align 2 {
  %3 = alloca i64, align 8
  %4 = alloca ptr, align 8
  %5 = alloca ptr, align 8
  %6 = alloca i32, align 4
  %7 = alloca i32, align 4
  store ptr %0, ptr %4, align 8, !tbaa !84
  store ptr %1, ptr %5, align 8, !tbaa !22
  %8 = load ptr, ptr %4, align 8
  call void @llvm.lifetime.start.p0(i64 4, ptr %6) #14
  %9 = load ptr, ptr %5, align 8, !tbaa !22
  %10 = call noundef i32 @_ZNK6icu_7711MeasureUnit13getComplexityER10UErrorCode(ptr noundef nonnull align 8 dereferenceable(19) %8, ptr noundef nonnull align 4 dereferenceable(4) %9)
  store i32 %10, ptr %6, align 4, !tbaa !101
  %11 = load ptr, ptr %5, align 8, !tbaa !22
  %12 = load i32, ptr %11, align 4, !tbaa !15
  %13 = call noundef signext i8 @_ZL9U_FAILURE10UErrorCode(i32 noundef %12)
  %14 = icmp ne i8 %13, 0
  br i1 %14, label %15, label %16

15:                                               ; preds = %2
  store i64 0, ptr %3, align 8
  store i32 1, ptr %7, align 4
  br label %34

16:                                               ; preds = %2
  %17 = load i32, ptr %6, align 4, !tbaa !101
  %18 = icmp ne i32 %17, 0
  br i1 %18, label %19, label %24

19:                                               ; preds = %16
  %20 = load i32, ptr %6, align 4, !tbaa !101
  %21 = icmp ne i32 %20, 1
  br i1 %21, label %22, label %24

22:                                               ; preds = %19
  %23 = load ptr, ptr %5, align 8, !tbaa !22
  store i32 1, ptr %23, align 4, !tbaa !15
  store i64 0, ptr %3, align 8
  store i32 1, ptr %7, align 4
  br label %34

24:                                               ; preds = %19, %16
  %25 = getelementptr inbounds nuw %"class.icu_77::MeasureUnit", ptr %8, i32 0, i32 1
  %26 = load ptr, ptr %25, align 8, !tbaa !87
  %27 = icmp eq ptr %26, null
  br i1 %27, label %28, label %29

28:                                               ; preds = %24
  store i64 0, ptr %3, align 8
  store i32 1, ptr %7, align 4
  br label %34

29:                                               ; preds = %24
  %30 = getelementptr inbounds nuw %"class.icu_77::MeasureUnit", ptr %8, i32 0, i32 1
  %31 = load ptr, ptr %30, align 8, !tbaa !87
  %32 = getelementptr inbounds nuw %"class.icu_77::MeasureUnitImpl", ptr %31, i32 0, i32 3
  %33 = load i64, ptr %32, align 8, !tbaa !60
  store i64 %33, ptr %3, align 8
  store i32 1, ptr %7, align 4
  br label %34

34:                                               ; preds = %29, %28, %22, %15
  call void @llvm.lifetime.end.p0(i64 4, ptr %6) #14
  %35 = load i64, ptr %3, align 8
  ret i64 %35
}