; Function Attrs: mustprogress uwtable
define noundef i64 @_ZNK6icu_7711MeasureUnit22getConstantDenominatorER10UErrorCode(ptr noundef nonnull align 8 dereferenceable(19) %0, ptr noundef nonnull align 4 dereferenceable(4) %1) local_unnamed_addr #1 align 2 {
  %3 = tail call noundef i32 @_ZNK6icu_7711MeasureUnit13getComplexityER10UErrorCode(ptr noundef nonnull align 8 dereferenceable(19) %0, ptr noundef nonnull align 4 dereferenceable(4) %1)
  %4 = load i32, ptr %1, align 4, !tbaa !13
  %5 = icmp slt i32 %4, 1
  br i1 %5, label %6, label %15

6:                                                ; preds = %2
  %or.cond = icmp ugt i32 %3, 1
  br i1 %or.cond, label %7, label %8

7:                                                ; preds = %6
  store i32 1, ptr %1, align 4, !tbaa !13
  br label %15

8:                                                ; preds = %6
  %9 = getelementptr inbounds nuw i8, ptr %0, i64 8
  %10 = load ptr, ptr %9, align 8, !tbaa !88
  %11 = icmp eq ptr %10, null
  br i1 %11, label %15, label %12

12:                                               ; preds = %8
  %13 = getelementptr inbounds nuw i8, ptr %10, i64 160
  %14 = load i64, ptr %13, align 8, !tbaa !81
  br label %15

15:                                               ; preds = %8, %2, %12, %7
  %.0 = phi i64 [ 0, %7 ], [ %14, %12 ], [ 0, %2 ], [ 0, %8 ]
  ret i64 %.0
}